; Function Attrs: mustprogress uwtable
define noundef ptr @_ZNK5boost9unit_test15unit_test_log_t10get_streamENS0_13output_formatE(ptr nocapture noundef nonnull readnone align 8 dereferenceable(8) %0, i32 noundef %1) local_unnamed_addr #4 align 2 personality ptr @__gxx_personality_v0 {
  %3 = load atomic i8, ptr @_ZGVZN5boost9unit_test12_GLOBAL__N_110s_log_implEvE8the_inst acquire, align 8
  %4 = icmp eq i8 %3, 0
  br i1 %4, label %5, label %_ZN5boost9unit_test12_GLOBAL__N_110s_log_implEv.exit, !prof !3

5:                                                ; preds = %2
  %6 = tail call i32 @__cxa_guard_acquire(ptr nonnull @_ZGVZN5boost9unit_test12_GLOBAL__N_110s_log_implEvE8the_inst) #27
  %.not.i = icmp eq i32 %6, 0
  br i1 %.not.i, label %_ZN5boost9unit_test12_GLOBAL__N_110s_log_implEv.exit, label %7

7:                                                ; preds = %5
  invoke fastcc void @_ZN5boost9unit_test12_GLOBAL__N_118unit_test_log_implC2Ev()
          to label %8 unwind label %10

8:                                                ; preds = %7
  %9 = tail call i32 @__cxa_atexit(ptr nonnull @_ZN5boost9unit_test12_GLOBAL__N_118unit_test_log_implD2Ev, ptr nonnull @_ZZN5boost9unit_test12_GLOBAL__N_110s_log_implEvE8the_inst, ptr nonnull @__dso_handle) #27
  tail call void @__cxa_guard_release(ptr nonnull @_ZGVZN5boost9unit_test12_GLOBAL__N_110s_log_implEvE8the_inst) #27
  br label %_ZN5boost9unit_test12_GLOBAL__N_110s_log_implEv.exit

10:                                               ; preds = %7
  %11 = landingpad { ptr, i32 }
          cleanup
  tail call void @__cxa_guard_abort(ptr nonnull @_ZGVZN5boost9unit_test12_GLOBAL__N_110s_log_implEvE8the_inst) #27
  resume { ptr, i32 } %11

_ZN5boost9unit_test12_GLOBAL__N_110s_log_implEv.exit: ; preds = %2, %5, %8
  %_ZZN5boost9unit_test12_GLOBAL__N_110s_log_implEvE8the_inst.val.i = load ptr, ptr @_ZZN5boost9unit_test12_GLOBAL__N_110s_log_implEvE8the_inst, align 8, !tbaa !4
  %.val.i = load ptr, ptr getelementptr inbounds nuw (i8, ptr @_ZZN5boost9unit_test12_GLOBAL__N_110s_log_implEvE8the_inst, i64 8), align 8, !tbaa !4
  %12 = icmp ult ptr %_ZZN5boost9unit_test12_GLOBAL__N_110s_log_implEvE8the_inst.val.i, %.val.i
  br i1 %12, label %.lr.ph, label %.split.loop.exit

.lr.ph:                                           ; preds = %_ZN5boost9unit_test12_GLOBAL__N_110s_log_implEv.exit, %15
  %.sroa.012.015 = phi ptr [ %16, %15 ], [ %_ZZN5boost9unit_test12_GLOBAL__N_110s_log_implEvE8the_inst.val.i, %_ZN5boost9unit_test12_GLOBAL__N_110s_log_implEv.exit ]
  %13 = getelementptr inbounds nuw i8, ptr %.sroa.012.015, i64 4
  %14 = load i32, ptr %13, align 4, !tbaa !106
  %.not = icmp eq i32 %14, %1
  br i1 %.not, label %.split.loop.exit13, label %15

15:                                               ; preds = %.lr.ph
  %16 = getelementptr inbounds nuw i8, ptr %.sroa.012.015, i64 56
  %17 = icmp ult ptr %16, %.val.i
  br i1 %17, label %.lr.ph, label %.split.loop.exit, !llvm.loop !108

.split.loop.exit13:                               ; preds = %.lr.ph
  %18 = getelementptr inbounds nuw i8, ptr %.sroa.012.015, i64 8
  %19 = load ptr, ptr %18, align 8
  br label %.split.loop.exit

.split.loop.exit:                                 ; preds = %15, %_ZN5boost9unit_test12_GLOBAL__N_110s_log_implEv.exit, %.split.loop.exit13
  %spec.select = phi ptr [ %19, %.split.loop.exit13 ], [ null, %_ZN5boost9unit_test12_GLOBAL__N_110s_log_implEv.exit ], [ null, %15 ]
  ret ptr %spec.select
}